; Function Attrs: nounwind uwtable
define ptr @cs_spfree(ptr noundef %0) local_unnamed_addr #0 {
  %.not = icmp eq ptr %0, null
  br i1 %.not, label %13, label %2

2:                                                ; preds = %1
  %3 = getelementptr inbounds nuw i8, ptr %0, i64 16
  %4 = load ptr, ptr %3, align 8, !tbaa !14
  %5 = tail call ptr @cs_free(ptr noundef %4) #4
  %6 = getelementptr inbounds nuw i8, ptr %0, i64 24
  %7 = load ptr, ptr %6, align 8, !tbaa !15
  %8 = tail call ptr @cs_free(ptr noundef %7) #4
  %9 = getelementptr inbounds nuw i8, ptr %0, i64 32
  %10 = load ptr, ptr %9, align 8, !tbaa !16
  %11 = tail call ptr @cs_free(ptr noundef %10) #4
  %12 = tail call ptr @cs_free(ptr noundef nonnull %0) #4
  br label %13

13:                                               ; preds = %1, %2
  %.0 = phi ptr [ %12, %2 ], [ null, %1 ]
  ret ptr %.0
}